target datalayout = "e-m:e-p270:32:32-p271:32:32-p272:64:64-i64:64-i128:128-f80:128-n8:16:32:64-S128"
target triple = "x86_64-pc-linux-gnu"

%struct.expert_field = type { i32, i32 }
%struct._xmpp_attr_info = type { ptr, ptr, i8, i8, ptr, ptr }
%struct._packet_info = type { ptr, ptr, i32, i32, %struct.nstime_t, %struct.nstime_t, %struct.nstime_t, i8, ptr, ptr, ptr, ptr, %struct._address, %struct._address, %struct._address, %struct._address, %struct._address, %struct._address, i32, ptr, i8, [3 x i8], %struct.anon, i32, i32, i32, i32, ptr, i8, ptr, ptr, i16, i16, i32, i32, i16, i32, i32, ptr, ptr, ptr, i8, i8, i16, i16, i16, i32, i16, i16, ptr, ptr, ptr, ptr, ptr, i32, i32 }
%struct.nstime_t = type { i64, i32 }
%struct._address = type { i32, i32, ptr, ptr }
%struct.anon = type { i8, [3 x i8] }
%struct._xmpp_element_t = type { ptr, ptr, ptr, ptr, ptr, ptr, i32, i32, i8 }
%struct._xmpp_conv_info_t = type { ptr, ptr, ptr, ptr, i32 }

@__const.xmpp_starttls.attrs_info = private unnamed_addr constant [1 x { ptr, ptr, i8, i8, [6 x i8], ptr, ptr }] [{ ptr, ptr, i8, i8, [6 x i8], ptr, ptr } { ptr @.str.5, ptr @hf_xmpp_xmlns, i8 1, i8 1, [6 x i8] zeroinitializer, ptr null, ptr null }], align 16
@.str.112 = private unnamed_addr constant [10 x i8] c"STARTTLS \00", align 1
@hf_xmpp_starttls = external global i32, align 4
@ett_xmpp_starttls = external global i32, align 4
@ei_xmpp_starttls_already_in_frame = external global %struct.expert_field, align 4
@.str.113 = private unnamed_addr constant [33 x i8] c"Already saw STARTTLS in frame %u\00", align 1

; Function Attrs: null_pointer_is_valid sspstrong uwtable
define hidden void @xmpp_starttls(ptr noundef %0, ptr noundef %1, ptr noundef %2, ptr noundef %3, ptr noundef %4) #0 {
  %6 = alloca ptr, align 8
  %7 = alloca ptr, align 8
  %8 = alloca ptr, align 8
  %9 = alloca ptr, align 8
  %10 = alloca ptr, align 8
  %11 = alloca ptr, align 8
  %12 = alloca ptr, align 8
  %13 = alloca [1 x %struct._xmpp_attr_info], align 16
  store ptr %0, ptr %6, align 8
  store ptr %1, ptr %7, align 8
  store ptr %2, ptr %8, align 8
  store ptr %3, ptr %9, align 8
  store ptr %4, ptr %10, align 8
  call void @llvm.lifetime.start.p0(i64 8, ptr %11) #6
  call void @llvm.lifetime.start.p0(i64 8, ptr %12) #6
  call void @llvm.lifetime.start.p0(i64 40, ptr %13) #6
  call void @llvm.memcpy.p0.p0.i64(ptr align 16 %13, ptr align 16 @__const.xmpp_starttls.attrs_info, i64 40, i1 false)
  %14 = load ptr, ptr %8, align 8
  %15 = getelementptr inbounds nuw %struct._packet_info, ptr %14, i32 0, i32 1
  %16 = load ptr, ptr %15, align 8
  call void @col_set_str(ptr noundef %16, i32 noundef 25, ptr noundef @.str.112)
  %17 = load ptr, ptr %6, align 8
  %18 = load i32, ptr @hf_xmpp_starttls, align 4
  %19 = load ptr, ptr %7, align 8
  %20 = load ptr, ptr %9, align 8
  %21 = getelementptr inbounds nuw %struct._xmpp_element_t, ptr %20, i32 0, i32 6
  %22 = load i32, ptr %21, align 8
  %23 = load ptr, ptr %9, align 8
  %24 = getelementptr inbounds nuw %struct._xmpp_element_t, ptr %23, i32 0, i32 7
  %25 = load i32, ptr %24, align 4
  %26 = call ptr @proto_tree_add_item(ptr noundef %17, i32 noundef %18, ptr noundef %19, i32 noundef %22, i32 noundef %25, i32 noundef 0)
  store ptr %26, ptr %11, align 8
  %27 = load ptr, ptr %11, align 8
  %28 = load i32, ptr @ett_xmpp_starttls, align 4
  %29 = call ptr @proto_item_add_subtree(ptr noundef %27, i32 noundef %28)
  store ptr %29, ptr %12, align 8
  %30 = load ptr, ptr %10, align 8
  %31 = getelementptr inbounds nuw %struct._xmpp_conv_info_t, ptr %30, i32 0, i32 4
  %32 = load i32, ptr %31, align 8
  %33 = icmp ne i32 %32, 0
  br i1 %33, label %34, label %49

34:                                               ; preds = %5
  %35 = load ptr, ptr %10, align 8
  %36 = getelementptr inbounds nuw %struct._xmpp_conv_info_t, ptr %35, i32 0, i32 4
  %37 = load i32, ptr %36, align 8
  %38 = load ptr, ptr %8, align 8
  %39 = getelementptr inbounds nuw %struct._packet_info, ptr %38, i32 0, i32 3
  %40 = load i32, ptr %39, align 4
  %41 = icmp ne i32 %37, %40
  br i1 %41, label %42, label %49

42:                                               ; preds = %34
  %43 = load ptr, ptr %8, align 8
  %44 = load ptr, ptr %11, align 8
  %45 = load ptr, ptr %10, align 8
  %46 = getelementptr inbounds nuw %struct._xmpp_conv_info_t, ptr %45, i32 0, i32 4
  %47 = load i32, ptr %46, align 8
  %48 = call ptr (ptr, ptr, ptr, ptr, ...) @expert_add_info_format(ptr noundef %43, ptr noundef %44, ptr noundef @ei_xmpp_starttls_already_in_frame, ptr noundef @.str.113, i32 noundef %47)
  br label %55

49:                                               ; preds = %34, %5
  %50 = load ptr, ptr %8, align 8
  %51 = getelementptr inbounds nuw %struct._packet_info, ptr %50, i32 0, i32 3
  %52 = load i32, ptr %51, align 4
  %53 = load ptr, ptr %10, align 8
  %54 = getelementptr inbounds nuw %struct._xmpp_conv_info_t, ptr %53, i32 0, i32 4
  store i32 %52, ptr %54, align 8
  br label %55

55:                                               ; preds = %49, %42
  %56 = load ptr, ptr %12, align 8
  %57 = load ptr, ptr %9, align 8
  %58 = load ptr, ptr %8, align 8
  %59 = load ptr, ptr %7, align 8
  %60 = getelementptr inbounds [1 x %struct._xmpp_attr_info], ptr %13, i64 0, i64 0
  call void @xmpp_display_attrs(ptr noundef %56, ptr noundef %57, ptr noundef %58, ptr noundef %59, ptr noundef %60, i32 noundef 1)
  %61 = load ptr, ptr %12, align 8
  %62 = load ptr, ptr %9, align 8
  %63 = load ptr, ptr %8, align 8
  %64 = load ptr, ptr %7, align 8
  call void @xmpp_display_elems(ptr noundef %61, ptr noundef %62, ptr noundef %63, ptr noundef %64, ptr noundef null, i32 noundef 0)
  call void @llvm.lifetime.end.p0(i64 40, ptr %13) #6
  call void @llvm.lifetime.end.p0(i64 8, ptr %12) #6
  call void @llvm.lifetime.end.p0(i64 8, ptr %11) #6
  ret void
}