; Function Attrs: null_pointer_is_valid sspstrong uwtable
define hidden void @xmpp_starttls(ptr noundef %0, ptr noundef %1, ptr noundef %2, ptr noundef %3, ptr noundef captures(none) %4) local_unnamed_addr #0 {
  %6 = alloca [1 x %struct._xmpp_attr_info], align 16
  call void @llvm.lifetime.start.p0(i64 40, ptr nonnull %6) #5
  call void @llvm.memcpy.p0.p0.i64(ptr noundef nonnull align 16 dereferenceable(40) %6, ptr noundef nonnull align 16 dereferenceable(40) @__const.xmpp_features_mechanisms.attrs_info, i64 40, i1 false)
  %7 = getelementptr inbounds nuw i8, ptr %2, i64 8
  %8 = load ptr, ptr %7, align 8
  tail call void @col_set_str(ptr noundef %8, i32 noundef 25, ptr noundef nonnull @.str.112)
  %9 = load i32, ptr @hf_xmpp_starttls, align 4
  %10 = getelementptr inbounds nuw i8, ptr %3, i64 48
  %11 = load i32, ptr %10, align 8
  %12 = getelementptr inbounds nuw i8, ptr %3, i64 52
  %13 = load i32, ptr %12, align 4
  %14 = tail call ptr @proto_tree_add_item(ptr noundef %0, i32 noundef %9, ptr noundef %1, i32 noundef %11, i32 noundef %13, i32 noundef 0)
  %15 = load i32, ptr @ett_xmpp_starttls, align 4
  %16 = tail call ptr @proto_item_add_subtree(ptr noundef %14, i32 noundef %15)
  %17 = getelementptr inbounds nuw i8, ptr %4, i64 32
  %18 = load i32, ptr %17, align 8
  %.not = icmp eq i32 %18, 0
  %.phi.trans.insert = getelementptr inbounds nuw i8, ptr %2, i64 20
  %.pre = load i32, ptr %.phi.trans.insert, align 4
  br i1 %.not, label %._crit_edge, label %19

19:                                               ; preds = %5
  %.not22 = icmp eq i32 %18, %.pre
  br i1 %.not22, label %._crit_edge, label %20

20:                                               ; preds = %19
  %21 = tail call ptr (ptr, ptr, ptr, ptr, ...) @expert_add_info_format(ptr noundef %2, ptr noundef %14, ptr noundef nonnull @ei_xmpp_starttls_already_in_frame, ptr noundef nonnull @.str.113, i32 noundef %18)
  br label %23

._crit_edge:                                      ; preds = %5, %19
  %22 = phi i32 [ %18, %19 ], [ %.pre, %5 ]
  store i32 %22, ptr %17, align 8
  br label %23

23:                                               ; preds = %._crit_edge, %20
  call void @xmpp_display_attrs(ptr noundef %16, ptr noundef %3, ptr noundef %2, ptr noundef %1, ptr noundef nonnull %6, i32 noundef 1)
  call void @xmpp_display_elems(ptr noundef %16, ptr noundef %3, ptr noundef %2, ptr noundef %1, ptr noundef null, i32 noundef 0)
  call void @llvm.lifetime.end.p0(i64 40, ptr nonnull %6) #5
  ret void
}